; Function Attrs: nounwind uwtable
define void @ff_vvc_predict_ciip(ptr noundef %0) local_unnamed_addr #0 {
  %2 = getelementptr inbounds nuw i8, ptr %0, i64 4547736
  %3 = load ptr, ptr %2, align 8, !tbaa !55
  %4 = getelementptr inbounds nuw i8, ptr %3, i64 44
  %5 = load i8, ptr %4, align 4, !tbaa !149
  %.not = icmp eq i8 %5, 0
  br i1 %.not, label %6, label %7

6:                                                ; preds = %1
  tail call void (ptr, i32, ptr, ...) @av_log(ptr noundef null, i32 noundef 0, ptr noundef nonnull @.str, ptr noundef nonnull @.str.1, ptr noundef nonnull @.str.2, i32 noundef 1020) #6
  tail call void @abort() #7
  unreachable

7:                                                ; preds = %1
  tail call fastcc void @pred_regular_blk(ptr noundef nonnull %0, i32 noundef 0)
  ret void
}